; Function Attrs: null_pointer_is_valid sspstrong uwtable
define internal i32 @dissect_tetra_D_TX_WAIT(ptr noundef %0, i32 noundef %1, ptr noundef %2, ptr noundef %3, i32 noundef %4) #0 {
  %6 = load i32, ptr @ett_tetra_D_TX_WAIT, align 4
  %7 = tail call i32 @dissect_per_sequence(ptr noundef %0, i32 noundef %1, ptr noundef %2, ptr noundef %3, i32 noundef %4, i32 noundef %6, ptr noundef nonnull @D_TX_WAIT_sequence)
  %8 = getelementptr inbounds nuw i8, ptr %2, i64 16
  %9 = load ptr, ptr %8, align 8
  %10 = getelementptr inbounds nuw i8, ptr %9, i64 8
  %11 = load ptr, ptr %10, align 8
  tail call void @col_append_sep_str(ptr noundef %11, i32 noundef 25, ptr noundef null, ptr noundef nonnull @.str.1146)
  %12 = load i32, ptr @ett_tetra_D_TX_WAIT, align 4
  %13 = tail call i32 @dissect_per_sequence(ptr noundef %0, i32 noundef %7, ptr noundef %2, ptr noundef %3, i32 noundef %4, i32 noundef %12, ptr noundef nonnull @D_TX_WAIT_sequence)
  %14 = load ptr, ptr %8, align 8
  %15 = getelementptr inbounds nuw i8, ptr %14, i64 8
  %16 = load ptr, ptr %15, align 8
  tail call void @col_append_sep_str(ptr noundef %16, i32 noundef 25, ptr noundef null, ptr noundef nonnull @.str.1146)
  ret i32 %13
}